target datalayout = "e-m:e-p270:32:32-p271:32:32-p272:64:64-i64:64-i128:128-f80:128-n8:16:32:64-S128"
target triple = "x86_64-pc-linux-gnu"

@.str.25 = private unnamed_addr constant [122 x i8] c"generated/home/dtcxzyw/WorkSpace/Projects/compilers/llvm-opt-benchmark/bench/lief/bench_build/mbed_src/library/x509_crt.c\00", align 1

; Function Attrs: inlinehint nounwind uwtable
define internal i32 @mbedtls_error_add(i32 noundef %0, i32 noundef %1, ptr noundef %2, i32 noundef %3) #9 {
  %5 = alloca i32, align 4
  %6 = alloca i32, align 4
  %7 = alloca ptr, align 8
  %8 = alloca i32, align 4
  store i32 %0, ptr %5, align 4, !tbaa !12
  store i32 %1, ptr %6, align 4, !tbaa !12
  store ptr %2, ptr %7, align 8, !tbaa !8
  store i32 %3, ptr %8, align 4, !tbaa !12
  %9 = load i32, ptr %5, align 4, !tbaa !12
  %10 = load i32, ptr %6, align 4, !tbaa !12
  %11 = add nsw i32 %9, %10
  ret i32 %11
}

; Function Attrs: nounwind uwtable
define internal i32 @x509_get_dates(ptr noundef %0, ptr noundef %1, ptr noundef %2, ptr noundef %3) #0 {
  %5 = alloca i32, align 4
  %6 = alloca ptr, align 8
  %7 = alloca ptr, align 8
  %8 = alloca ptr, align 8
  %9 = alloca ptr, align 8
  %10 = alloca i32, align 4
  %11 = alloca i64, align 8
  %12 = alloca i32, align 4
  store ptr %0, ptr %6, align 8, !tbaa !62
  store ptr %1, ptr %7, align 8, !tbaa !8
  store ptr %2, ptr %8, align 8, !tbaa !120
  store ptr %3, ptr %9, align 8, !tbaa !120
  call void @llvm.lifetime.start.p0(i64 4, ptr %10) #10
  store i32 -110, ptr %10, align 4, !tbaa !12
  call void @llvm.lifetime.start.p0(i64 8, ptr %11) #10
  %13 = load ptr, ptr %6, align 8, !tbaa !62
  %14 = load ptr, ptr %7, align 8, !tbaa !8
  %15 = call i32 @mbedtls_asn1_get_tag(ptr noundef %13, ptr noundef %14, ptr noundef %11, i32 noundef 48)
  store i32 %15, ptr %10, align 4, !tbaa !12
  %16 = icmp ne i32 %15, 0
  br i1 %16, label %17, label %20

17:                                               ; preds = %4
  %18 = load i32, ptr %10, align 4, !tbaa !12
  %19 = call i32 @mbedtls_error_add(i32 noundef -9216, i32 noundef %18, ptr noundef @.str.25, i32 noundef 442)
  store i32 %19, ptr %5, align 4
  store i32 1, ptr %12, align 4
  br label %48

20:                                               ; preds = %4
  %21 = load ptr, ptr %6, align 8, !tbaa !62
  %22 = load ptr, ptr %21, align 8, !tbaa !8
  %23 = load i64, ptr %11, align 8, !tbaa !10
  %24 = getelementptr inbounds nuw i8, ptr %22, i64 %23
  store ptr %24, ptr %7, align 8, !tbaa !8
  %25 = load ptr, ptr %6, align 8, !tbaa !62
  %26 = load ptr, ptr %7, align 8, !tbaa !8
  %27 = load ptr, ptr %8, align 8, !tbaa !120
  %28 = call i32 @mbedtls_x509_get_time(ptr noundef %25, ptr noundef %26, ptr noundef %27)
  store i32 %28, ptr %10, align 4, !tbaa !12
  %29 = icmp ne i32 %28, 0
  br i1 %29, label %30, label %32

30:                                               ; preds = %20
  %31 = load i32, ptr %10, align 4, !tbaa !12
  store i32 %31, ptr %5, align 4
  store i32 1, ptr %12, align 4
  br label %48

32:                                               ; preds = %20
  %33 = load ptr, ptr %6, align 8, !tbaa !62
  %34 = load ptr, ptr %7, align 8, !tbaa !8
  %35 = load ptr, ptr %9, align 8, !tbaa !120
  %36 = call i32 @mbedtls_x509_get_time(ptr noundef %33, ptr noundef %34, ptr noundef %35)
  store i32 %36, ptr %10, align 4, !tbaa !12
  %37 = icmp ne i32 %36, 0
  br i1 %37, label %38, label %40

38:                                               ; preds = %32
  %39 = load i32, ptr %10, align 4, !tbaa !12
  store i32 %39, ptr %5, align 4
  store i32 1, ptr %12, align 4
  br label %48

40:                                               ; preds = %32
  %41 = load ptr, ptr %6, align 8, !tbaa !62
  %42 = load ptr, ptr %41, align 8, !tbaa !8
  %43 = load ptr, ptr %7, align 8, !tbaa !8
  %44 = icmp ne ptr %42, %43
  br i1 %44, label %45, label %47

45:                                               ; preds = %40
  %46 = call i32 @mbedtls_error_add(i32 noundef -9216, i32 noundef -102, ptr noundef @.str.25, i32 noundef 457)
  store i32 %46, ptr %5, align 4
  store i32 1, ptr %12, align 4
  br label %48

47:                                               ; preds = %40
  store i32 0, ptr %5, align 4
  store i32 1, ptr %12, align 4
  br label %48

48:                                               ; preds = %47, %45, %38, %30, %17
  call void @llvm.lifetime.end.p0(i64 8, ptr %11) #10
  call void @llvm.lifetime.end.p0(i64 4, ptr %10) #10
  %49 = load i32, ptr %5, align 4
  ret i32 %49
}