; Function Attrs: nounwind uwtable
define internal fastcc i32 @x509_get_dates(ptr noundef nonnull %0, ptr noundef %1, ptr noundef nonnull %2, ptr noundef nonnull %3) unnamed_addr #0 {
  %5 = alloca i64, align 8
  call void @llvm.lifetime.start.p0(i64 8, ptr nonnull %5) #17
  %6 = call i32 @mbedtls_asn1_get_tag(ptr noundef nonnull %0, ptr noundef %1, ptr noundef nonnull %5, i32 noundef 48) #17
  %.not = icmp eq i32 %6, 0
  br i1 %.not, label %9, label %7

7:                                                ; preds = %4
  %8 = add nsw i32 %6, -9216
  br label %18

9:                                                ; preds = %4
  %10 = load ptr, ptr %0, align 8, !tbaa !24
  %11 = load i64, ptr %5, align 8, !tbaa !25
  %12 = getelementptr inbounds nuw i8, ptr %10, i64 %11
  %13 = call i32 @mbedtls_x509_get_time(ptr noundef nonnull %0, ptr noundef %12, ptr noundef nonnull %2) #17
  %.not17 = icmp eq i32 %13, 0
  br i1 %.not17, label %14, label %18

14:                                               ; preds = %9
  %15 = call i32 @mbedtls_x509_get_time(ptr noundef nonnull %0, ptr noundef %12, ptr noundef nonnull %3) #17
  %.not18 = icmp eq i32 %15, 0
  br i1 %.not18, label %16, label %18

16:                                               ; preds = %14
  %17 = load ptr, ptr %0, align 8, !tbaa !24
  %.not19 = icmp eq ptr %17, %12
  %spec.select = select i1 %.not19, i32 0, i32 -9318
  br label %18

18:                                               ; preds = %16, %14, %9, %7
  %.0 = phi i32 [ %8, %7 ], [ %13, %9 ], [ %15, %14 ], [ %spec.select, %16 ]
  call void @llvm.lifetime.end.p0(i64 8, ptr nonnull %5) #17
  ret i32 %.0
}